target datalayout = "e-m:e-p270:32:32-p271:32:32-p272:64:64-i64:64-i128:128-f80:128-n8:16:32:64-S128"
target triple = "x86_64-pc-linux-gnu"

%struct.DdManager = type { %struct.DdNode, ptr, ptr, ptr, ptr, ptr, ptr, ptr, i32, i32, double, double, double, i32, i32, i32, i32, i32, i32, ptr, ptr, %struct.DdSubtable, i32, i32, i32, i32, i32, i32, i32, double, i32, i32, i32, ptr, i64, double, i32, ptr, ptr, ptr, ptr, ptr, ptr, ptr, i32, ptr, ptr, ptr, ptr, ptr, ptr, i32, i32, i32, double, i32, i32, i32, i32, double, double, i32, i32, i32, i32, i32, i32, i32, i32, i32, ptr, ptr, i32, i32, i32, i32, i32, i32, ptr, ptr, ptr, ptr, ptr, ptr, ptr, ptr, i32, i64, i64, i64, i32, i64, i64, double, double, double, double, double, double, i32, ptr, ptr, i64 }
%struct.DdNode = type { i32, i32, ptr, %union.anon, i64 }
%union.anon = type { %struct.DdChildren }
%struct.DdChildren = type { ptr, ptr }
%struct.DdSubtable = type { ptr, i32, i32, i32, i32, i32, i32, i32, i32, i32, i32, i32 }

; Function Attrs: nounwind uwtable
define i32 @cuddZddInitUniv(ptr noundef %0) #0 {
  %2 = alloca i32, align 4
  %3 = alloca ptr, align 8
  %4 = alloca ptr, align 8
  %5 = alloca ptr, align 8
  %6 = alloca i32, align 4
  %7 = alloca i32, align 4
  %8 = alloca i32, align 4
  store ptr %0, ptr %3, align 8, !tbaa !9
  call void @llvm.lifetime.start.p0(i64 8, ptr %4) #5
  call void @llvm.lifetime.start.p0(i64 8, ptr %5) #5
  call void @llvm.lifetime.start.p0(i64 4, ptr %6) #5
  %9 = load ptr, ptr %3, align 8, !tbaa !9
  %10 = getelementptr inbounds nuw %struct.DdManager, ptr %9, i32 0, i32 16
  %11 = load i32, ptr %10, align 4, !tbaa !44
  %12 = sext i32 %11 to i64
  %13 = mul i64 8, %12
  %14 = call noalias ptr @malloc(i64 noundef %13) #6
  %15 = load ptr, ptr %3, align 8, !tbaa !9
  %16 = getelementptr inbounds nuw %struct.DdManager, ptr %15, i32 0, i32 43
  store ptr %14, ptr %16, align 8, !tbaa !49
  %17 = load ptr, ptr %3, align 8, !tbaa !9
  %18 = getelementptr inbounds nuw %struct.DdManager, ptr %17, i32 0, i32 43
  %19 = load ptr, ptr %18, align 8, !tbaa !49
  %20 = icmp eq ptr %19, null
  br i1 %20, label %21, label %24

21:                                               ; preds = %1
  %22 = load ptr, ptr %3, align 8, !tbaa !9
  %23 = getelementptr inbounds nuw %struct.DdManager, ptr %22, i32 0, i32 86
  store i32 1, ptr %23, align 8, !tbaa !40
  store i32 0, ptr %2, align 4
  store i32 1, ptr %7, align 4
  br label %102

24:                                               ; preds = %1
  %25 = load ptr, ptr %3, align 8, !tbaa !9
  %26 = getelementptr inbounds nuw %struct.DdManager, ptr %25, i32 0, i32 1
  %27 = load ptr, ptr %26, align 8, !tbaa !31
  store ptr %27, ptr %5, align 8, !tbaa !37
  %28 = load ptr, ptr %5, align 8, !tbaa !37
  %29 = ptrtoint ptr %28 to i64
  %30 = and i64 %29, -2
  %31 = inttoptr i64 %30 to ptr
  %32 = getelementptr inbounds nuw %struct.DdNode, ptr %31, i32 0, i32 1
  %33 = load i32, ptr %32, align 4, !tbaa !32
  %34 = add i32 %33, 1
  store i32 %34, ptr %32, align 4, !tbaa !32
  %35 = load ptr, ptr %3, align 8, !tbaa !9
  %36 = getelementptr inbounds nuw %struct.DdManager, ptr %35, i32 0, i32 16
  %37 = load i32, ptr %36, align 4, !tbaa !44
  %38 = sub nsw i32 %37, 1
  store i32 %38, ptr %6, align 4, !tbaa !3
  br label %39

39:                                               ; preds = %98, %24
  %40 = load i32, ptr %6, align 4, !tbaa !3
  %41 = icmp sge i32 %40, 0
  br i1 %41, label %42, label %101

42:                                               ; preds = %39
  call void @llvm.lifetime.start.p0(i64 4, ptr %8) #5
  %43 = load ptr, ptr %3, align 8, !tbaa !9
  %44 = getelementptr inbounds nuw %struct.DdManager, ptr %43, i32 0, i32 40
  %45 = load ptr, ptr %44, align 8, !tbaa !50
  %46 = load i32, ptr %6, align 4, !tbaa !3
  %47 = sext i32 %46 to i64
  %48 = getelementptr inbounds i32, ptr %45, i64 %47
  %49 = load i32, ptr %48, align 4, !tbaa !3
  store i32 %49, ptr %8, align 4, !tbaa !3
  %50 = load ptr, ptr %5, align 8, !tbaa !37
  store ptr %50, ptr %4, align 8, !tbaa !37
  %51 = load ptr, ptr %3, align 8, !tbaa !9
  %52 = load i32, ptr %8, align 4, !tbaa !3
  %53 = load ptr, ptr %4, align 8, !tbaa !37
  %54 = load ptr, ptr %4, align 8, !tbaa !37
  %55 = call ptr @cuddUniqueInterZdd(ptr noundef %51, i32 noundef %52, ptr noundef %53, ptr noundef %54)
  store ptr %55, ptr %5, align 8, !tbaa !37
  %56 = load ptr, ptr %5, align 8, !tbaa !37
  %57 = icmp eq ptr %56, null
  br i1 %57, label %58, label %73

58:                                               ; preds = %42
  %59 = load ptr, ptr %3, align 8, !tbaa !9
  %60 = load ptr, ptr %4, align 8, !tbaa !37
  call void @Cudd_RecursiveDerefZdd(ptr noundef %59, ptr noundef %60)
  %61 = load ptr, ptr %3, align 8, !tbaa !9
  %62 = getelementptr inbounds nuw %struct.DdManager, ptr %61, i32 0, i32 43
  %63 = load ptr, ptr %62, align 8, !tbaa !49
  %64 = icmp ne ptr %63, null
  br i1 %64, label %65, label %71

65:                                               ; preds = %58
  %66 = load ptr, ptr %3, align 8, !tbaa !9
  %67 = getelementptr inbounds nuw %struct.DdManager, ptr %66, i32 0, i32 43
  %68 = load ptr, ptr %67, align 8, !tbaa !49
  call void @free(ptr noundef %68) #5
  %69 = load ptr, ptr %3, align 8, !tbaa !9
  %70 = getelementptr inbounds nuw %struct.DdManager, ptr %69, i32 0, i32 43
  store ptr null, ptr %70, align 8, !tbaa !49
  br label %72

71:                                               ; preds = %58
  br label %72

72:                                               ; preds = %71, %65
  store i32 0, ptr %2, align 4
  store i32 1, ptr %7, align 4
  br label %95

73:                                               ; preds = %42
  %74 = load ptr, ptr %5, align 8, !tbaa !37
  %75 = ptrtoint ptr %74 to i64
  %76 = and i64 %75, -2
  %77 = inttoptr i64 %76 to ptr
  %78 = getelementptr inbounds nuw %struct.DdNode, ptr %77, i32 0, i32 1
  %79 = load i32, ptr %78, align 4, !tbaa !32
  %80 = add i32 %79, 1
  store i32 %80, ptr %78, align 4, !tbaa !32
  %81 = load ptr, ptr %4, align 8, !tbaa !37
  %82 = ptrtoint ptr %81 to i64
  %83 = and i64 %82, -2
  %84 = inttoptr i64 %83 to ptr
  %85 = getelementptr inbounds nuw %struct.DdNode, ptr %84, i32 0, i32 1
  %86 = load i32, ptr %85, align 4, !tbaa !32
  %87 = add i32 %86, -1
  store i32 %87, ptr %85, align 4, !tbaa !32
  %88 = load ptr, ptr %5, align 8, !tbaa !37
  %89 = load ptr, ptr %3, align 8, !tbaa !9
  %90 = getelementptr inbounds nuw %struct.DdManager, ptr %89, i32 0, i32 43
  %91 = load ptr, ptr %90, align 8, !tbaa !49
  %92 = load i32, ptr %6, align 4, !tbaa !3
  %93 = sext i32 %92 to i64
  %94 = getelementptr inbounds ptr, ptr %91, i64 %93
  store ptr %88, ptr %94, align 8, !tbaa !37
  store i32 0, ptr %7, align 4
  br label %95

95:                                               ; preds = %73, %72
  call void @llvm.lifetime.end.p0(i64 4, ptr %8) #5
  %96 = load i32, ptr %7, align 4
  switch i32 %96, label %102 [
    i32 0, label %97
  ]

97:                                               ; preds = %95
  br label %98

98:                                               ; preds = %97
  %99 = load i32, ptr %6, align 4, !tbaa !3
  %100 = add nsw i32 %99, -1
  store i32 %100, ptr %6, align 4, !tbaa !3
  br label %39, !llvm.loop !51

101:                                              ; preds = %39
  store i32 1, ptr %2, align 4
  store i32 1, ptr %7, align 4
  br label %102

102:                                              ; preds = %101, %95, %21
  call void @llvm.lifetime.end.p0(i64 4, ptr %6) #5
  call void @llvm.lifetime.end.p0(i64 8, ptr %5) #5
  call void @llvm.lifetime.end.p0(i64 8, ptr %4) #5
  %103 = load i32, ptr %2, align 4
  ret i32 %103
}