; Function Attrs: nounwind uwtable
define range(i32 0, 2) i32 @cuddZddInitUniv(ptr noundef initializes((360, 368)) %0) local_unnamed_addr #0 {
  %2 = getelementptr inbounds nuw i8, ptr %0, i64 140
  %3 = load i32, ptr %2, align 4, !tbaa !39
  %4 = sext i32 %3 to i64
  %5 = shl nsw i64 %4, 3
  %6 = tail call noalias ptr @malloc(i64 noundef %5) #7
  %7 = getelementptr inbounds nuw i8, ptr %0, i64 360
  store ptr %6, ptr %7, align 8, !tbaa !41
  %8 = icmp eq ptr %6, null
  br i1 %8, label %9, label %11

9:                                                ; preds = %1
  %10 = getelementptr inbounds nuw i8, ptr %0, i64 624
  store i32 1, ptr %10, align 8, !tbaa !35
  br label %.thread

11:                                               ; preds = %1
  %12 = getelementptr inbounds nuw i8, ptr %0, i64 40
  %13 = load ptr, ptr %12, align 8, !tbaa !26
  %14 = ptrtoint ptr %13 to i64
  %15 = and i64 %14, -2
  %16 = inttoptr i64 %15 to ptr
  %17 = getelementptr inbounds nuw i8, ptr %16, i64 4
  %18 = load i32, ptr %17, align 4, !tbaa !27
  %19 = add i32 %18, 1
  store i32 %19, ptr %17, align 4, !tbaa !27
  %20 = icmp sgt i32 %3, 0
  br i1 %20, label %.lr.ph, label %.thread

.lr.ph:                                           ; preds = %11
  %21 = getelementptr inbounds nuw i8, ptr %0, i64 336
  %22 = zext nneg i32 %3 to i64
  br label %23

23:                                               ; preds = %.lr.ph, %31
  %indvars.iv = phi i64 [ %22, %.lr.ph ], [ %indvars.iv.next, %31 ]
  %.03036 = phi ptr [ %13, %.lr.ph ], [ %27, %31 ]
  %indvars.iv.next = add nsw i64 %indvars.iv, -1
  %24 = load ptr, ptr %21, align 8, !tbaa !42
  %25 = getelementptr inbounds nuw i32, ptr %24, i64 %indvars.iv.next
  %26 = load i32, ptr %25, align 4, !tbaa !43
  %27 = tail call ptr @cuddUniqueInterZdd(ptr noundef nonnull %0, i32 noundef %26, ptr noundef %.03036, ptr noundef %.03036) #6
  %.not33 = icmp eq ptr %27, null
  br i1 %.not33, label %28, label %31

28:                                               ; preds = %23
  tail call void @Cudd_RecursiveDerefZdd(ptr noundef nonnull %0, ptr noundef %.03036) #6
  %29 = load ptr, ptr %7, align 8, !tbaa !41
  %.not = icmp eq ptr %29, null
  br i1 %.not, label %.thread, label %30

30:                                               ; preds = %28
  tail call void @free(ptr noundef nonnull %29) #6
  store ptr null, ptr %7, align 8, !tbaa !41
  br label %.thread

31:                                               ; preds = %23
  %32 = ptrtoint ptr %27 to i64
  %33 = and i64 %32, -2
  %34 = inttoptr i64 %33 to ptr
  %35 = getelementptr inbounds nuw i8, ptr %34, i64 4
  %36 = load i32, ptr %35, align 4, !tbaa !27
  %37 = add i32 %36, 1
  store i32 %37, ptr %35, align 4, !tbaa !27
  %38 = ptrtoint ptr %.03036 to i64
  %39 = and i64 %38, -2
  %40 = inttoptr i64 %39 to ptr
  %41 = getelementptr inbounds nuw i8, ptr %40, i64 4
  %42 = load i32, ptr %41, align 4, !tbaa !27
  %43 = add i32 %42, -1
  store i32 %43, ptr %41, align 4, !tbaa !27
  %44 = load ptr, ptr %7, align 8, !tbaa !41
  %45 = getelementptr inbounds nuw ptr, ptr %44, i64 %indvars.iv.next
  store ptr %27, ptr %45, align 8, !tbaa !36
  %46 = icmp samesign ugt i64 %indvars.iv, 1
  br i1 %46, label %23, label %.thread, !llvm.loop !44

.thread:                                          ; preds = %31, %11, %28, %30, %9
  %.0 = phi i32 [ 0, %9 ], [ 0, %30 ], [ 0, %28 ], [ 1, %11 ], [ 1, %31 ]
  ret i32 %.0
}